target datalayout = "e-m:e-p270:32:32-p271:32:32-p272:64:64-i64:64-i128:128-f80:128-n8:16:32:64-S128"
target triple = "x86_64-unknown-linux-gnu"

@.str.1 = private unnamed_addr constant [31 x i8] c"../qemu/block/qcow2-refcount.c\00", align 1
@.str.48 = private unnamed_addr constant [15 x i8] c"!(value >> 16)\00", align 1
@__PRETTY_FUNCTION__.set_refcount_ro4 = private unnamed_addr constant [50 x i8] c"void set_refcount_ro4(void *, uint64_t, uint64_t)\00", align 1

; Function Attrs: nounwind sspstrong uwtable
define internal zeroext i16 @cpu_to_be16(i16 noundef zeroext %v) #0 {
entry:
  %v.addr = alloca i16, align 2
  store i16 %v, ptr %v.addr, align 2
  %0 = load i16, ptr %v.addr, align 2
  %1 = call i16 @llvm.bswap.i16(i16 %0)
  ret i16 %1
}

; Function Attrs: nounwind sspstrong uwtable
define internal void @set_refcount_ro4(ptr noundef %refcount_array, i64 noundef %index, i64 noundef %value) #0 {
entry:
  %refcount_array.addr = alloca ptr, align 8
  %index.addr = alloca i64, align 8
  %value.addr = alloca i64, align 8
  store ptr %refcount_array, ptr %refcount_array.addr, align 8
  store i64 %index, ptr %index.addr, align 8
  store i64 %value, ptr %value.addr, align 8
  %0 = load i64, ptr %value.addr, align 8
  %shr = lshr i64 %0, 16
  %tobool = icmp ne i64 %shr, 0
  br i1 %tobool, label %if.else, label %if.then

if.then:                                          ; preds = %entry
  br label %if.end

if.else:                                          ; preds = %entry
  call void @__assert_fail(ptr noundef @.str.48, ptr noundef @.str.1, i32 noundef 204, ptr noundef @__PRETTY_FUNCTION__.set_refcount_ro4) #10
  unreachable

if.end:                                           ; preds = %if.then
  %1 = load i64, ptr %value.addr, align 8
  %conv = trunc i64 %1 to i16
  %call = call zeroext i16 @cpu_to_be16(i16 noundef zeroext %conv)
  %2 = load ptr, ptr %refcount_array.addr, align 8
  %3 = load i64, ptr %index.addr, align 8
  %arrayidx = getelementptr i16, ptr %2, i64 %3
  store i16 %call, ptr %arrayidx, align 2
  ret void
}