; Function Attrs: nounwind sspstrong uwtable
define internal void @set_refcount_ro4(ptr noundef writeonly captures(none) %refcount_array, i64 noundef %index, i64 noundef %value) #0 {
entry:
  %tobool.not = icmp ult i64 %value, 65536
  br i1 %tobool.not, label %if.end, label %if.else

if.else:                                          ; preds = %entry
  tail call void @__assert_fail(ptr noundef nonnull @.str.48, ptr noundef nonnull @.str.1, i32 noundef 204, ptr noundef nonnull @__PRETTY_FUNCTION__.set_refcount_ro4) #15
  unreachable

if.end:                                           ; preds = %entry
  %conv = trunc nuw i64 %value to i16
  %0 = tail call noundef i16 @llvm.bswap.i16(i16 %conv)
  %arrayidx = getelementptr i16, ptr %refcount_array, i64 %index
  store i16 %0, ptr %arrayidx, align 2
  ret void
}